target datalayout = "e-m:e-p270:32:32-p271:32:32-p272:64:64-i64:64-i128:128-f80:128-n8:16:32:64-S128"
target triple = "x86_64-unknown-linux-gnu"

%struct.orlov_stats = type { i64, i32, i32 }
%struct.dx_hash_info = type { i32, i32, i32, ptr }

; Function Attrs: fn_ret_thunk_extern nounwind null_pointer_is_valid
define internal fastcc void @get_orlov_stats(ptr noundef %0, i32 noundef %1, i32 noundef %2, ptr nocapture noundef writeonly %3) unnamed_addr #0 align 16 {
  %5 = icmp sgt i32 %2, 1
  br i1 %5, label %6, label %21

6:                                                ; preds = %4
  tail call void @__rcu_read_lock() #10
  %7 = getelementptr inbounds i8, ptr %0, i64 872
  %8 = load ptr, ptr %7, align 8
  %9 = getelementptr inbounds i8, ptr %8, i64 1184
  %10 = load volatile ptr, ptr %9, align 32
  %11 = zext i32 %1 to i64
  %12 = getelementptr ptr, ptr %10, i64 %11
  %13 = load ptr, ptr %12, align 8
  tail call void @__rcu_read_unlock() #10
  %14 = getelementptr inbounds i8, ptr %13, i64 8
  %15 = load volatile i32, ptr %14, align 4
  %16 = getelementptr inbounds i8, ptr %3, i64 8
  store i32 %15, ptr %16, align 8
  %17 = load volatile i64, ptr %13, align 8
  store i64 %17, ptr %3, align 8
  %18 = getelementptr inbounds i8, ptr %13, i64 12
  %19 = load volatile i32, ptr %18, align 4
  %20 = getelementptr inbounds i8, ptr %3, i64 12
  store i32 %19, ptr %20, align 4
  br label %32

21:                                               ; preds = %4
  %22 = tail call ptr @ext4_get_group_desc(ptr noundef %0, i32 noundef %1, ptr noundef null) #10
  %23 = icmp eq ptr %22, null
  br i1 %23, label %31, label %24

24:                                               ; preds = %21
  %25 = tail call i32 @ext4_free_inodes_count(ptr noundef %0, ptr noundef nonnull %22) #10
  %26 = getelementptr inbounds i8, ptr %3, i64 8
  store i32 %25, ptr %26, align 8
  %27 = tail call i32 @ext4_free_group_clusters(ptr noundef %0, ptr noundef nonnull %22) #10
  %28 = zext i32 %27 to i64
  store i64 %28, ptr %3, align 8
  %29 = tail call i32 @ext4_used_dirs_count(ptr noundef %0, ptr noundef nonnull %22) #10
  %30 = getelementptr inbounds i8, ptr %3, i64 12
  store i32 %29, ptr %30, align 4
  br label %32

31:                                               ; preds = %21
  tail call void @llvm.memset.p0.i64(ptr noundef align 8 dereferenceable(16) %3, i8 0, i64 16, i1 false)
  br label %32

32:                                               ; preds = %31, %24, %6
  ret void
}

; Function Attrs: fn_ret_thunk_extern nounwind null_pointer_is_valid
define internal fastcc noundef i32 @find_group_orlov(ptr noundef %0, ptr noundef %1, ptr nocapture noundef writeonly %2, i16 noundef zeroext %3, ptr noundef readonly %4) unnamed_addr #0 align 16 {
  %6 = alloca %struct.orlov_stats, align 8
  %7 = alloca %struct.dx_hash_info, align 8
  %8 = getelementptr i8, ptr %1, i64 -224
  %9 = load i32, ptr %8, align 8
  %10 = getelementptr inbounds i8, ptr %0, i64 872
  %11 = load ptr, ptr %10, align 8
  %12 = getelementptr inbounds i8, ptr %11, i64 64
  %13 = load i32, ptr %12, align 64
  tail call void asm sideeffect "", "~{memory},~{dirflag},~{fpsr},~{flags}"() #10, !srcloc !33
  %14 = load ptr, ptr %10, align 8
  %15 = getelementptr inbounds i8, ptr %14, i64 32
  %16 = load i64, ptr %15, align 32
  %17 = trunc i64 %16 to i32
  call void @llvm.lifetime.start.p0(i64 16, ptr nonnull %6) #10
  call void @llvm.memset.p0.i64(ptr noundef nonnull align 8 dereferenceable(16) %6, i8 0, i64 16, i1 false), !annotation !12
  %18 = getelementptr inbounds i8, ptr %11, i64 1180
  %19 = load i32, ptr %18, align 4
  %20 = shl nuw i32 1, %19
  call void @llvm.lifetime.start.p0(i64 24, ptr nonnull %7) #10
  call void @llvm.memset.p0.i64(ptr noundef nonnull align 8 dereferenceable(24) %7, i8 0, i64 24, i1 false), !annotation !12
  %21 = icmp slt i32 %20, 2
  %22 = add i32 %13, -1
  %23 = add i32 %22, %20
  %24 = lshr i32 %23, %19
  %25 = select i1 %21, i32 %13, i32 %24
  %26 = select i1 %21, i32 0, i32 %19
  %27 = lshr i32 %9, %26
  %28 = getelementptr inbounds i8, ptr %11, i64 272
  %29 = load volatile i64, ptr %28, align 8
  %30 = tail call i64 @llvm.smax.i64(i64 %29, i64 0)
  %31 = trunc i64 %30 to i32
  %32 = udiv i32 %31, %25
  %33 = getelementptr inbounds i8, ptr %11, i64 232
  %34 = load volatile i64, ptr %33, align 8
  %35 = tail call i64 @llvm.smax.i64(i64 %34, i64 0)
  %36 = zext i32 %25 to i64
  %37 = udiv i64 %35, %36
  %38 = getelementptr inbounds i8, ptr %11, i64 312
  %39 = load volatile i64, ptr %38, align 8
  %40 = tail call i64 @llvm.smax.i64(i64 %39, i64 0)
  %41 = trunc i64 %40 to i32
  %42 = and i16 %3, -4096
  %43 = icmp eq i16 %42, 16384
  br i1 %43, label %44, label %120

44:                                               ; preds = %5
  %45 = getelementptr inbounds i8, ptr %0, i64 104
  %46 = load ptr, ptr %45, align 8
  %47 = getelementptr inbounds i8, ptr %46, i64 48
  %48 = load ptr, ptr %47, align 8
  %49 = icmp eq ptr %48, %1
  br i1 %49, label %55, label %50

50:                                               ; preds = %44
  %51 = getelementptr i8, ptr %1, i64 -216
  %52 = load volatile i64, ptr %51, align 8
  %53 = and i64 %52, 131072
  %54 = icmp eq i64 %53, 0
  br i1 %54, label %120, label %55

55:                                               ; preds = %50, %44
  %56 = icmp eq ptr %4, null
  br i1 %56, label %68, label %57

57:                                               ; preds = %55
  %58 = getelementptr inbounds i8, ptr %7, i64 8
  store i32 1, ptr %58, align 8
  %59 = getelementptr inbounds i8, ptr %11, i64 196
  %60 = getelementptr inbounds i8, ptr %7, i64 16
  store ptr %59, ptr %60, align 8
  %61 = getelementptr inbounds i8, ptr %4, i64 8
  %62 = load ptr, ptr %61, align 8
  %63 = getelementptr inbounds i8, ptr %4, i64 4
  %64 = load i32, ptr %63, align 4
  %65 = call i32 @ext4fs_dirhash(ptr noundef %1, ptr noundef %62, i32 noundef %64, ptr noundef nonnull %7) #10
  %66 = load i32, ptr %7, align 8
  %67 = urem i32 %66, %25
  br label %70

68:                                               ; preds = %55
  %69 = tail call i32 @__get_random_u32_below(i32 noundef %25) #10
  br label %70

70:                                               ; preds = %68, %57
  %71 = phi i32 [ %67, %57 ], [ %69, %68 ]
  %72 = getelementptr inbounds i8, ptr %6, i64 8
  %73 = getelementptr inbounds i8, ptr %6, i64 12
  %74 = call i32 @llvm.umax.i32(i32 %25, i32 1)
  br label %75

75:                                               ; preds = %93, %70
  %76 = phi i32 [ -1, %70 ], [ %96, %93 ]
  %77 = phi i32 [ %17, %70 ], [ %95, %93 ]
  %78 = phi i32 [ 0, %70 ], [ %94, %93 ]
  %79 = phi i32 [ 0, %70 ], [ %97, %93 ]
  %80 = add i32 %79, %71
  %81 = urem i32 %80, %25
  call fastcc void @get_orlov_stats(ptr noundef %0, i32 noundef %81, i32 noundef %20, ptr noundef nonnull %6)
  %82 = load i32, ptr %72, align 8
  %83 = icmp eq i32 %82, 0
  br i1 %83, label %93, label %84

84:                                               ; preds = %75
  %85 = load i32, ptr %73, align 4
  %86 = icmp uge i32 %85, %77
  %87 = icmp ult i32 %82, %32
  %88 = select i1 %86, i1 true, i1 %87
  %89 = load i64, ptr %6, align 8
  %90 = icmp ult i64 %89, %37
  %91 = select i1 %88, i1 true, i1 %90
  br i1 %91, label %93, label %92

92:                                               ; preds = %84
  br label %93

93:                                               ; preds = %92, %84, %75
  %94 = phi i32 [ %78, %84 ], [ %81, %92 ], [ %78, %75 ]
  %95 = phi i32 [ %77, %84 ], [ %85, %92 ], [ %77, %75 ]
  %96 = phi i32 [ %76, %84 ], [ 0, %92 ], [ %76, %75 ]
  %97 = add nuw i32 %79, 1
  %98 = icmp eq i32 %97, %74
  br i1 %98, label %99, label %75, !llvm.loop !49

99:                                               ; preds = %93
  %100 = icmp eq i32 %96, 0
  br i1 %100, label %101, label %160

101:                                              ; preds = %145, %99
  %102 = phi i32 [ %94, %99 ], [ %148, %145 ]
  %103 = icmp eq i32 %19, 0
  br i1 %103, label %182, label %104

104:                                              ; preds = %101
  %105 = shl i32 %102, %19
  %106 = call i32 @llvm.usub.sat.i32(i32 %13, i32 %105)
  br label %107

107:                                              ; preds = %117, %104
  %108 = phi i32 [ 0, %104 ], [ %118, %117 ]
  %109 = add nuw i32 %108, %105
  %110 = icmp eq i32 %108, %106
  br i1 %110, label %160, label %111

111:                                              ; preds = %107
  %112 = call ptr @ext4_get_group_desc(ptr noundef %0, i32 noundef %109, ptr noundef null) #10
  %113 = icmp eq ptr %112, null
  br i1 %113, label %117, label %114

114:                                              ; preds = %111
  %115 = call i32 @ext4_free_inodes_count(ptr noundef %0, ptr noundef nonnull %112) #10
  %116 = icmp eq i32 %115, 0
  br i1 %116, label %117, label %182

117:                                              ; preds = %114, %111
  %118 = add nuw i32 %108, 1
  %119 = icmp eq i32 %118, %20
  br i1 %119, label %160, label %107, !llvm.loop !50

120:                                              ; preds = %50, %5
  %121 = udiv i32 %41, %25
  %122 = shl i32 %17, %19
  %123 = sdiv i32 %122, 16
  %124 = add i32 %121, %123
  %125 = sdiv i32 %122, -4
  %126 = add i32 %32, %125
  %127 = tail call i32 @llvm.smax.i32(i32 %126, i32 1)
  %128 = getelementptr inbounds i8, ptr %14, i64 24
  %129 = load i64, ptr %128, align 8
  %130 = sext i32 %20 to i64
  %131 = mul i64 %129, %130
  %132 = lshr i64 %131, 2
  %133 = sub nsw i64 %37, %132
  %134 = getelementptr i8, ptr %1, i64 708
  %135 = load i32, ptr %134, align 4
  %136 = icmp eq i32 %135, -1
  %137 = select i1 %21, i32 0, i32 %19
  %138 = lshr i32 %135, %137
  %139 = select i1 %136, i32 %27, i32 %138
  %140 = getelementptr inbounds i8, ptr %6, i64 12
  %141 = getelementptr inbounds i8, ptr %6, i64 8
  %142 = shl i64 %133, 32
  %143 = ashr exact i64 %142, 32
  %144 = tail call i32 @llvm.umax.i32(i32 %25, i32 1)
  br label %145

145:                                              ; preds = %157, %120
  %146 = phi i32 [ 0, %120 ], [ %158, %157 ]
  %147 = add i32 %146, %139
  %148 = urem i32 %147, %25
  call fastcc void @get_orlov_stats(ptr noundef %0, i32 noundef %148, i32 noundef %20, ptr noundef nonnull %6)
  %149 = load i32, ptr %140, align 4
  %150 = icmp uge i32 %149, %124
  %151 = load i32, ptr %141, align 8
  %152 = icmp ult i32 %151, %127
  %153 = select i1 %150, i1 true, i1 %152
  %154 = load i64, ptr %6, align 8
  %155 = icmp ult i64 %154, %143
  %156 = select i1 %153, i1 true, i1 %155
  br i1 %156, label %157, label %101

157:                                              ; preds = %145
  %158 = add nuw i32 %146, 1
  %159 = icmp eq i32 %158, %144
  br i1 %159, label %160, label %145, !llvm.loop !51

160:                                              ; preds = %157, %117, %107, %99
  %161 = udiv i32 %31, %13
  %162 = call i32 @llvm.umax.i32(i32 %13, i32 1)
  br label %163

163:                                              ; preds = %180, %160
  %164 = phi i32 [ %161, %160 ], [ 0, %180 ]
  %165 = load i32, ptr %8, align 8
  br label %166

166:                                              ; preds = %177, %163
  %167 = phi i32 [ 0, %163 ], [ %178, %177 ]
  %168 = add i32 %167, %165
  %169 = urem i32 %168, %13
  %170 = call ptr @ext4_get_group_desc(ptr noundef %0, i32 noundef %169, ptr noundef null) #10
  %171 = icmp eq ptr %170, null
  br i1 %171, label %177, label %172

172:                                              ; preds = %166
  %173 = call i32 @ext4_free_inodes_count(ptr noundef %0, ptr noundef nonnull %170) #10
  %174 = icmp eq i32 %173, 0
  %175 = icmp ult i32 %173, %164
  %176 = select i1 %174, i1 true, i1 %175
  br i1 %176, label %177, label %182

177:                                              ; preds = %172, %166
  %178 = add nuw i32 %167, 1
  %179 = icmp eq i32 %178, %162
  br i1 %179, label %180, label %166, !llvm.loop !52

180:                                              ; preds = %177
  %181 = icmp eq i32 %164, 0
  br i1 %181, label %184, label %163

182:                                              ; preds = %172, %114, %101
  %183 = phi i32 [ %102, %101 ], [ %169, %172 ], [ %109, %114 ]
  store i32 %183, ptr %2, align 4
  br label %184

184:                                              ; preds = %182, %180
  %185 = phi i32 [ 0, %182 ], [ -1, %180 ]
  call void @llvm.lifetime.end.p0(i64 24, ptr nonnull %7) #10
  call void @llvm.lifetime.end.p0(i64 16, ptr nonnull %6) #10
  ret i32 %185
}