; Function Attrs: fn_ret_thunk_extern nounwind null_pointer_is_valid
define internal fastcc noundef i32 @find_group_orlov(ptr noundef %0, ptr noundef %1, ptr nocapture noundef writeonly %2, i16 noundef zeroext %3, ptr noundef readonly %4) unnamed_addr #0 align 16 {
  %6 = alloca %struct.dx_hash_info, align 8
  %7 = getelementptr i8, ptr %1, i64 -224
  %8 = load i32, ptr %7, align 8
  %9 = getelementptr inbounds i8, ptr %0, i64 872
  %10 = load ptr, ptr %9, align 8
  %11 = getelementptr inbounds i8, ptr %10, i64 64
  %12 = load i32, ptr %11, align 64
  tail call void asm sideeffect "", "~{memory},~{dirflag},~{fpsr},~{flags}"() #10, !srcloc !35
  %13 = load ptr, ptr %9, align 8
  %14 = getelementptr inbounds i8, ptr %13, i64 32
  %15 = load i64, ptr %14, align 32
  %16 = trunc i64 %15 to i32
  %17 = getelementptr inbounds i8, ptr %10, i64 1180
  %18 = load i32, ptr %17, align 4
  %19 = shl nuw i32 1, %18
  call void @llvm.lifetime.start.p0(i64 24, ptr nonnull %6) #10
  call void @llvm.memset.p0.i64(ptr noundef nonnull align 8 dereferenceable(24) %6, i8 0, i64 24, i1 false), !annotation !12
  %20 = icmp slt i32 %19, 2
  %21 = add i32 %12, -1
  %22 = add i32 %21, %19
  %23 = lshr i32 %22, %18
  %24 = select i1 %20, i32 %12, i32 %23
  %25 = select i1 %20, i32 0, i32 %18
  %26 = getelementptr inbounds i8, ptr %10, i64 272
  %27 = load volatile i64, ptr %26, align 8
  %28 = tail call i64 @llvm.smax.i64(i64 %27, i64 0)
  %29 = trunc i64 %28 to i32
  %30 = udiv i32 %29, %24
  %31 = getelementptr inbounds i8, ptr %10, i64 232
  %32 = load volatile i64, ptr %31, align 8
  %33 = tail call i64 @llvm.smax.i64(i64 %32, i64 0)
  %34 = zext i32 %24 to i64
  %35 = udiv i64 %33, %34
  %36 = getelementptr inbounds i8, ptr %10, i64 312
  %37 = load volatile i64, ptr %36, align 8
  %38 = tail call i64 @llvm.smax.i64(i64 %37, i64 0)
  %39 = trunc i64 %38 to i32
  %40 = and i16 %3, -4096
  %41 = icmp eq i16 %40, 16384
  br i1 %41, label %42, label %137

42:                                               ; preds = %5
  %43 = getelementptr inbounds i8, ptr %0, i64 104
  %44 = load ptr, ptr %43, align 8
  %45 = getelementptr inbounds i8, ptr %44, i64 48
  %46 = load ptr, ptr %45, align 8
  %47 = icmp eq ptr %46, %1
  br i1 %47, label %53, label %48

48:                                               ; preds = %42
  %49 = getelementptr i8, ptr %1, i64 -216
  %50 = load volatile i64, ptr %49, align 8
  %51 = and i64 %50, 131072
  %52 = icmp eq i64 %51, 0
  br i1 %52, label %137, label %53

53:                                               ; preds = %48, %42
  %54 = icmp eq ptr %4, null
  br i1 %54, label %66, label %55

55:                                               ; preds = %53
  %56 = getelementptr inbounds i8, ptr %6, i64 8
  store i32 1, ptr %56, align 8
  %57 = getelementptr inbounds i8, ptr %10, i64 196
  %58 = getelementptr inbounds i8, ptr %6, i64 16
  store ptr %57, ptr %58, align 8
  %59 = getelementptr inbounds i8, ptr %4, i64 8
  %60 = load ptr, ptr %59, align 8
  %61 = getelementptr inbounds i8, ptr %4, i64 4
  %62 = load i32, ptr %61, align 4
  %63 = call i32 @ext4fs_dirhash(ptr noundef %1, ptr noundef %60, i32 noundef %62, ptr noundef nonnull %6) #10
  %64 = load i32, ptr %6, align 8
  %65 = urem i32 %64, %24
  br label %68

66:                                               ; preds = %53
  %67 = tail call i32 @__get_random_u32_below(i32 noundef %24) #10
  br label %68

68:                                               ; preds = %66, %55
  %69 = phi i32 [ %65, %55 ], [ %67, %66 ]
  %70 = call i32 @llvm.umax.i32(i32 %24, i32 1)
  %71 = icmp sgt i32 %19, 1
  br i1 %71, label %.outer.us, label %.outer

.outer.us:                                        ; preds = %68, %.thread.split.us.us
  %.ph.us = phi i32 [ 0, %.thread.split.us.us ], [ -1, %68 ]
  %.ph34.us = phi i32 [ %85, %.thread.split.us.us ], [ %16, %68 ]
  %.ph35.us = phi i32 [ %74, %.thread.split.us.us ], [ 0, %68 ]
  %.ph36.us = phi i32 [ %95, %.thread.split.us.us ], [ 0, %68 ]
  br label %get_orlov_stats.exit.us.us

get_orlov_stats.exit.us.us:                       ; preds = %get_orlov_stats.exit.thread.us.us, %.outer.us
  %72 = phi i32 [ %93, %get_orlov_stats.exit.thread.us.us ], [ %.ph36.us, %.outer.us ]
  %73 = add i32 %72, %69
  %74 = urem i32 %73, %24
  call void @__rcu_read_lock() #10
  %75 = load ptr, ptr %9, align 8
  %76 = getelementptr inbounds i8, ptr %75, i64 1184
  %77 = load volatile ptr, ptr %76, align 32
  %78 = zext i32 %74 to i64
  %79 = getelementptr ptr, ptr %77, i64 %78
  %80 = load ptr, ptr %79, align 8
  call void @__rcu_read_unlock() #10
  %81 = getelementptr inbounds i8, ptr %80, i64 8
  %82 = load volatile i32, ptr %81, align 4
  %83 = load volatile i64, ptr %80, align 8
  %84 = getelementptr inbounds i8, ptr %80, i64 12
  %85 = load volatile i32, ptr %84, align 4
  %86 = icmp eq i32 %82, 0
  br i1 %86, label %get_orlov_stats.exit.thread.us.us, label %87

87:                                               ; preds = %get_orlov_stats.exit.us.us
  %88 = icmp uge i32 %85, %.ph34.us
  %89 = icmp ult i32 %82, %30
  %90 = select i1 %88, i1 true, i1 %89
  %91 = icmp ult i64 %83, %35
  %92 = select i1 %90, i1 true, i1 %91
  br i1 %92, label %get_orlov_stats.exit.thread.us.us, label %.thread.split.us.us

get_orlov_stats.exit.thread.us.us:                ; preds = %87, %get_orlov_stats.exit.us.us
  %93 = add nuw i32 %72, 1
  %94 = icmp eq i32 %93, %70
  br i1 %94, label %.split54.us, label %get_orlov_stats.exit.us.us, !llvm.loop !51

.thread.split.us.us:                              ; preds = %87
  %95 = add nuw i32 %72, 1
  %96 = icmp eq i32 %95, %70
  br i1 %96, label %.thread27, label %.outer.us, !llvm.loop !51

.outer:                                           ; preds = %68, %.thread.split
  %.ph = phi i32 [ 0, %.thread.split ], [ -1, %68 ]
  %.ph34 = phi i32 [ %105, %.thread.split ], [ %16, %68 ]
  %.ph35 = phi i32 [ %100, %.thread.split ], [ 0, %68 ]
  %.ph36 = phi i32 [ %116, %.thread.split ], [ 0, %68 ]
  br label %97

97:                                               ; preds = %.outer, %get_orlov_stats.exit.thread
  %98 = phi i32 [ %114, %get_orlov_stats.exit.thread ], [ %.ph36, %.outer ]
  %99 = add i32 %98, %69
  %100 = urem i32 %99, %24
  %101 = call ptr @ext4_get_group_desc(ptr noundef %0, i32 noundef %100, ptr noundef null) #10
  %102 = icmp eq ptr %101, null
  br i1 %102, label %get_orlov_stats.exit.thread, label %get_orlov_stats.exit

get_orlov_stats.exit:                             ; preds = %97
  %103 = call i32 @ext4_free_inodes_count(ptr noundef %0, ptr noundef nonnull %101) #10
  %104 = call i32 @ext4_free_group_clusters(ptr noundef %0, ptr noundef nonnull %101) #10
  %105 = call i32 @ext4_used_dirs_count(ptr noundef %0, ptr noundef nonnull %101) #10
  %106 = icmp eq i32 %103, 0
  br i1 %106, label %get_orlov_stats.exit.thread, label %107

107:                                              ; preds = %get_orlov_stats.exit
  %108 = zext i32 %104 to i64
  %109 = icmp uge i32 %105, %.ph34
  %110 = icmp ult i32 %103, %30
  %111 = select i1 %109, i1 true, i1 %110
  %112 = icmp ugt i64 %35, %108
  %113 = select i1 %111, i1 true, i1 %112
  br i1 %113, label %get_orlov_stats.exit.thread, label %.thread.split

get_orlov_stats.exit.thread:                      ; preds = %97, %107, %get_orlov_stats.exit
  %114 = add nuw i32 %98, 1
  %115 = icmp eq i32 %114, %70
  br i1 %115, label %.split54.us, label %97, !llvm.loop !51

.thread.split:                                    ; preds = %107
  %116 = add nuw i32 %98, 1
  %117 = icmp eq i32 %116, %70
  br i1 %117, label %.thread27, label %.outer, !llvm.loop !51

.split54.us:                                      ; preds = %get_orlov_stats.exit.thread, %get_orlov_stats.exit.thread.us.us
  %.us-phi55 = phi i32 [ %.ph.us, %get_orlov_stats.exit.thread.us.us ], [ %.ph, %get_orlov_stats.exit.thread ]
  %.us-phi56 = phi i32 [ %.ph35.us, %get_orlov_stats.exit.thread.us.us ], [ %.ph35, %get_orlov_stats.exit.thread ]
  %118 = icmp eq i32 %.us-phi55, 0
  br i1 %118, label %.thread27, label %.loopexit32

.thread27:                                        ; preds = %get_orlov_stats.exit12, %get_orlov_stats.exit12.us, %.thread.split, %.thread.split.us.us, %.split54.us
  %119 = phi i32 [ %.us-phi56, %.split54.us ], [ %74, %.thread.split.us.us ], [ %100, %.thread.split ], [ %161, %get_orlov_stats.exit12.us ], [ %182, %get_orlov_stats.exit12 ]
  %120 = icmp eq i32 %18, 0
  br i1 %120, label %.loopexit, label %121

121:                                              ; preds = %.thread27
  %122 = shl i32 %119, %18
  %123 = call i32 @llvm.usub.sat.i32(i32 %12, i32 %122)
  br label %124

124:                                              ; preds = %134, %121
  %125 = phi i32 [ 0, %121 ], [ %135, %134 ]
  %126 = add nuw i32 %125, %122
  %127 = icmp eq i32 %125, %123
  br i1 %127, label %.loopexit32, label %128

128:                                              ; preds = %124
  %129 = call ptr @ext4_get_group_desc(ptr noundef %0, i32 noundef %126, ptr noundef null) #10
  %130 = icmp eq ptr %129, null
  br i1 %130, label %134, label %131

131:                                              ; preds = %128
  %132 = call i32 @ext4_free_inodes_count(ptr noundef %0, ptr noundef nonnull %129) #10
  %133 = icmp eq i32 %132, 0
  br i1 %133, label %134, label %.loopexit

134:                                              ; preds = %131, %128
  %135 = add nuw i32 %125, 1
  %136 = icmp eq i32 %135, %19
  br i1 %136, label %.loopexit32, label %124, !llvm.loop !52

137:                                              ; preds = %48, %5
  %138 = udiv i32 %39, %24
  %139 = shl i32 %16, %18
  %140 = sdiv i32 %139, 16
  %141 = add i32 %138, %140
  %142 = sdiv i32 %139, -4
  %143 = add i32 %30, %142
  %144 = tail call i32 @llvm.smax.i32(i32 %143, i32 1)
  %145 = getelementptr inbounds i8, ptr %13, i64 24
  %146 = load i64, ptr %145, align 8
  %147 = sext i32 %19 to i64
  %148 = mul i64 %146, %147
  %149 = lshr i64 %148, 2
  %150 = sub nsw i64 %35, %149
  %151 = getelementptr i8, ptr %1, i64 708
  %152 = load i32, ptr %151, align 4
  %153 = icmp eq i32 %152, -1
  %.v = select i1 %153, i32 %8, i32 %152
  %154 = lshr i32 %.v, %25
  %155 = shl i64 %150, 32
  %156 = ashr exact i64 %155, 32
  %157 = tail call i32 @llvm.umax.i32(i32 %24, i32 1)
  %158 = icmp sgt i32 %19, 1
  br i1 %158, label %get_orlov_stats.exit12.us, label %.split

get_orlov_stats.exit12.us:                        ; preds = %137, %get_orlov_stats.exit12.thread.us
  %159 = phi i32 [ %178, %get_orlov_stats.exit12.thread.us ], [ 0, %137 ]
  %160 = add i32 %159, %154
  %161 = urem i32 %160, %24
  tail call void @__rcu_read_lock() #10
  %162 = load ptr, ptr %9, align 8
  %163 = getelementptr inbounds i8, ptr %162, i64 1184
  %164 = load volatile ptr, ptr %163, align 32
  %165 = zext i32 %161 to i64
  %166 = getelementptr ptr, ptr %164, i64 %165
  %167 = load ptr, ptr %166, align 8
  tail call void @__rcu_read_unlock() #10
  %168 = getelementptr inbounds i8, ptr %167, i64 8
  %169 = load volatile i32, ptr %168, align 4
  %170 = load volatile i64, ptr %167, align 8
  %171 = getelementptr inbounds i8, ptr %167, i64 12
  %172 = load volatile i32, ptr %171, align 4
  %173 = icmp uge i32 %172, %141
  %174 = icmp ult i32 %169, %144
  %175 = select i1 %173, i1 true, i1 %174
  %176 = icmp ult i64 %170, %156
  %177 = select i1 %175, i1 true, i1 %176
  br i1 %177, label %get_orlov_stats.exit12.thread.us, label %.thread27

get_orlov_stats.exit12.thread.us:                 ; preds = %get_orlov_stats.exit12.us
  %178 = add nuw i32 %159, 1
  %179 = icmp eq i32 %178, %157
  br i1 %179, label %.loopexit32, label %get_orlov_stats.exit12.us, !llvm.loop !53

.split:                                           ; preds = %137, %get_orlov_stats.exit12.thread
  %180 = phi i32 [ %194, %get_orlov_stats.exit12.thread ], [ 0, %137 ]
  %181 = add i32 %180, %154
  %182 = urem i32 %181, %24
  %183 = tail call ptr @ext4_get_group_desc(ptr noundef %0, i32 noundef %182, ptr noundef null) #10
  %184 = icmp eq ptr %183, null
  br i1 %184, label %get_orlov_stats.exit12.thread, label %get_orlov_stats.exit12

get_orlov_stats.exit12:                           ; preds = %.split
  %185 = tail call i32 @ext4_free_inodes_count(ptr noundef %0, ptr noundef nonnull %183) #10
  %186 = tail call i32 @ext4_free_group_clusters(ptr noundef %0, ptr noundef nonnull %183) #10
  %187 = zext i32 %186 to i64
  %188 = tail call i32 @ext4_used_dirs_count(ptr noundef %0, ptr noundef nonnull %183) #10
  %189 = icmp uge i32 %188, %141
  %190 = icmp ult i32 %185, %144
  %191 = select i1 %189, i1 true, i1 %190
  %192 = icmp ugt i64 %156, %187
  %193 = select i1 %191, i1 true, i1 %192
  br i1 %193, label %get_orlov_stats.exit12.thread, label %.thread27

get_orlov_stats.exit12.thread:                    ; preds = %.split, %get_orlov_stats.exit12
  %194 = add nuw i32 %180, 1
  %195 = icmp eq i32 %194, %157
  br i1 %195, label %.loopexit32, label %.split, !llvm.loop !53

.loopexit32:                                      ; preds = %get_orlov_stats.exit12.thread, %get_orlov_stats.exit12.thread.us, %134, %124, %.split54.us
  %196 = udiv i32 %29, %12
  %197 = call i32 @llvm.umax.i32(i32 %12, i32 1)
  br label %198

198:                                              ; preds = %215, %.loopexit32
  %199 = phi i32 [ %196, %.loopexit32 ], [ 0, %215 ]
  %200 = load i32, ptr %7, align 8
  br label %201

201:                                              ; preds = %212, %198
  %202 = phi i32 [ 0, %198 ], [ %213, %212 ]
  %203 = add i32 %202, %200
  %204 = urem i32 %203, %12
  %205 = call ptr @ext4_get_group_desc(ptr noundef %0, i32 noundef %204, ptr noundef null) #10
  %206 = icmp eq ptr %205, null
  br i1 %206, label %212, label %207

207:                                              ; preds = %201
  %208 = call i32 @ext4_free_inodes_count(ptr noundef %0, ptr noundef nonnull %205) #10
  %209 = icmp eq i32 %208, 0
  %210 = icmp ult i32 %208, %199
  %211 = select i1 %209, i1 true, i1 %210
  br i1 %211, label %212, label %.loopexit

212:                                              ; preds = %207, %201
  %213 = add nuw i32 %202, 1
  %214 = icmp eq i32 %213, %197
  br i1 %214, label %215, label %201, !llvm.loop !54

215:                                              ; preds = %212
  %216 = icmp eq i32 %199, 0
  br i1 %216, label %.loopexit31, label %198

.loopexit:                                        ; preds = %131, %207, %.thread27
  %217 = phi i32 [ %119, %.thread27 ], [ %204, %207 ], [ %126, %131 ]
  store i32 %217, ptr %2, align 4
  br label %.loopexit31

.loopexit31:                                      ; preds = %215, %.loopexit
  %218 = phi i32 [ 0, %.loopexit ], [ -1, %215 ]
  call void @llvm.lifetime.end.p0(i64 24, ptr nonnull %6) #10
  ret i32 %218
}